0x0000	00	NOP
0x0001	00	NOP
0x0002	00	NOP
0x0003	c3	JMP 18d4
0x18d4	31	LXI SP 2400
0x18d7	06	MVI B 00
0x18d9	cd	CALL 01e6
0x01e6	11	LXI DE 1b00
0x01e9	21	LXI HL 2000
0x01ec	c3	JMP 1a32
0x1a32	1a	LDAX DE 01
0x1a33	77	MOV HL, A 01
0x1a34	23	INX HL 2001
0x1a35	13	INX DE 1b01
0x1a36	05	DCR B ff
0x1a37	c2	JNZ 1a32
0x1a32	1a	LDAX DE 00
0x1a33	77	MOV HL, A 00
0x1a34	23	INX HL 2002
0x1a35	13	INX DE 1b02
0x1a36	05	DCR B fe
0x1a37	c2	JNZ 1a32
0x1a32	1a	LDAX DE 00
0x1a33	77	MOV HL, A 00
0x1a34	23	INX HL 2003
0x1a35	13	INX DE 1b03
0x1a36	05	DCR B fd
0x1a37	c2	JNZ 1a32
0x1a32	1a	LDAX DE 10
0x1a33	77	MOV HL, A 10
0x1a34	23	INX HL 2004
0x1a35	13	INX DE 1b04
0x1a36	05	DCR B fc
0x1a37	c2	JNZ 1a32
0x1a32	1a	LDAX DE 00
0x1a33	77	MOV HL, A 00
0x1a34	23	INX HL 2005
0x1a35	13	INX DE 1b05
0x1a36	05	DCR B fb
0x1a37	c2	JNZ 1a32
0x1a32	1a	LDAX DE 00
0x1a33	77	MOV HL, A 00
0x1a34	23	INX HL 2006
0x1a35	13	INX DE 1b06
0x1a36	05	DCR B fa
0x1a37	c2	JNZ 1a32
0x1a32	1a	LDAX DE 00
0x1a33	77	MOV HL, A 00
0x1a34	23	INX HL 2007
0x1a35	13	INX DE 1b07
0x1a36	05	DCR B f9
0x1a37	c2	JNZ 1a32
0x1a32	1a	LDAX DE 00
0x1a33	77	MOV HL, A 00
0x1a34	23	INX HL 2008
0x1a35	13	INX DE 1b08
0x1a36	05	DCR B f8
0x1a37	c2	JNZ 1a32
0x1a32	1a	LDAX DE 02
0x1a33	77	MOV HL, A 02
0x1a34	23	INX HL 2009
0x1a35	13	INX DE 1b09
0x1a36	05	DCR B f7
0x1a37	c2	JNZ 1a32
0x1a32	1a	LDAX DE 78
0x1a33	77	MOV HL, A 78
0x1a34	23	INX HL 200a
0x1a35	13	INX DE 1b0a
0x1a36	05	DCR B f6
0x1a37	c2	JNZ 1a32
0x1a32	1a	LDAX DE 38
0x1a33	77	MOV HL, A 38
0x1a34	23	INX HL 200b
0x1a35	13	INX DE 1b0b
0x1a36	05	DCR B f5
0x1a37	c2	JNZ 1a32
0x1a32	1a	LDAX DE 78
0x1a33	77	MOV HL, A 78
0x1a34	23	INX HL 200c
0x1a35	13	INX DE 1b0c
0x1a36	05	DCR B f4
0x1a37	c2	JNZ 1a32
0x1a32	1a	LDAX DE 38
0x1a33	77	MOV HL, A 38
0x1a34	23	INX HL 200d
0x1a35	13	INX DE 1b0d
0x1a36	05	DCR B f3
0x1a37	c2	JNZ 1a32
0x1a32	1a	LDAX DE 00
0x1a33	77	MOV HL, A 00
0x1a34	23	INX HL 200e
0x1a35	13	INX DE 1b0e
0x1a36	05	DCR B f2
0x1a37	c2	JNZ 1a32
0x1a32	1a	LDAX DE f8
0x1a33	77	MOV HL, A f8
0x1a34	23	INX HL 200f
0x1a35	13	INX DE 1b0f
0x1a36	05	DCR B f1
0x1a37	c2	JNZ 1a32
0x1a32	1a	LDAX DE 00
0x1a33	77	MOV HL, A 00
0x1a34	23	INX HL 2010
0x1a35	13	INX DE 1b10
0x1a36	05	DCR B f0
0x1a37	c2	JNZ 1a32
0x1a32	1a	LDAX DE 00
0x1a33	77	MOV HL, A 00
0x1a34	23	INX HL 2011
0x1a35	13	INX DE 1b11
0x1a36	05	DCR B ef
0x1a37	c2	JNZ 1a32
0x1a32	1a	LDAX DE 80
0x1a33	77	MOV HL, A 80
0x1a34	23	INX HL 2012
0x1a35	13	INX DE 1b12
0x1a36	05	DCR B ee
0x1a37	c2	JNZ 1a32
0x1a32	1a	LDAX DE 00
0x1a33	77	MOV HL, A 00
0x1a34	23	INX HL 2013
0x1a35	13	INX DE 1b13
0x1a36	05	DCR B ed
0x1a37	c2	JNZ 1a32
0x1a32	1a	LDAX DE 8e
0x1a33	77	MOV HL, A 8e
0x1a34	23	INX HL 2014
0x1a35	13	INX DE 1b14
0x1a36	05	DCR B ec
0x1a37	c2	JNZ 1a32
0x1a32	1a	LDAX DE 02
0x1a33	77	MOV HL, A 02
0x1a34	23	INX HL 2015
0x1a35	13	INX DE 1b15
0x1a36	05	DCR B eb
0x1a37	c2	JNZ 1a32
0x1a32	1a	LDAX DE ff
0x1a33	77	MOV HL, A ff
0x1a34	23	INX HL 2016
0x1a35	13	INX DE 1b16
0x1a36	05	DCR B ea
0x1a37	c2	JNZ 1a32
0x1a32	1a	LDAX DE 05
0x1a33	77	MOV HL, A 05
0x1a34	23	INX HL 2017
0x1a35	13	INX DE 1b17
0x1a36	05	DCR B e9
0x1a37	c2	JNZ 1a32
0x1a32	1a	LDAX DE 0c
0x1a33	77	MOV HL, A 0c
0x1a34	23	INX HL 2018
0x1a35	13	INX DE 1b18
0x1a36	05	DCR B e8
0x1a37	c2	JNZ 1a32
0x1a32	1a	LDAX DE 60
0x1a33	77	MOV HL, A 60
0x1a34	23	INX HL 2019
0x1a35	13	INX DE 1b19
0x1a36	05	DCR B e7
0x1a37	c2	JNZ 1a32
0x1a32	1a	LDAX DE 1c
0x1a33	77	MOV HL, A 1c
0x1a34	23	INX HL 201a
0x1a35	13	INX DE 1b1a
0x1a36	05	DCR B e6
0x1a37	c2	JNZ 1a32
0x1a32	1a	LDAX DE 20
0x1a33	77	MOV HL, A 20
0x1a34	23	INX HL 201b
0x1a35	13	INX DE 1b1b
0x1a36	05	DCR B e5
0x1a37	c2	JNZ 1a32
0x1a32	1a	LDAX DE 30
0x1a33	77	MOV HL, A 30
0x1a34	23	INX HL 201c
0x1a35	13	INX DE 1b1c
0x1a36	05	DCR B e4
0x1a37	c2	JNZ 1a32
0x1a32	1a	LDAX DE 10
0x1a33	77	MOV HL, A 10
0x1a34	23	INX HL 201d
0x1a35	13	INX DE 1b1d
0x1a36	05	DCR B e3
0x1a37	c2	JNZ 1a32
0x1a32	1a	LDAX DE 01
0x1a33	77	MOV HL, A 01
0x1a34	23	INX HL 201e
0x1a35	13	INX DE 1b1e
0x1a36	05	DCR B e2
0x1a37	c2	JNZ 1a32
0x1a32	1a	LDAX DE 00
0x1a33	77	MOV HL, A 00
0x1a34	23	INX HL 201f
0x1a35	13	INX DE 1b1f
0x1a36	05	DCR B e1
0x1a37	c2	JNZ 1a32
0x1a32	1a	LDAX DE 00
0x1a33	77	MOV HL, A 00
0x1a34	23	INX HL 2020
0x1a35	13	INX DE 1b20
0x1a36	05	DCR B e0
0x1a37	c2	JNZ 1a32
0x1a32	1a	LDAX DE 00
0x1a33	77	MOV HL, A 00
0x1a34	23	INX HL 2021
0x1a35	13	INX DE 1b21
0x1a36	05	DCR B df
0x1a37	c2	JNZ 1a32
0x1a32	1a	LDAX DE 00
0x1a33	77	MOV HL, A 00
0x1a34	23	INX HL 2022
0x1a35	13	INX DE 1b22
0x1a36	05	DCR B de
0x1a37	c2	JNZ 1a32
0x1a32	1a	LDAX DE 00
0x1a33	77	MOV HL, A 00
0x1a34	23	INX HL 2023
0x1a35	13	INX DE 1b23
0x1a36	05	DCR B dd
0x1a37	c2	JNZ 1a32
0x1a32	1a	LDAX DE bb
0x1a33	77	MOV HL, A bb
0x1a34	23	INX HL 2024
0x1a35	13	INX DE 1b24
0x1a36	05	DCR B dc
0x1a37	c2	JNZ 1a32
0x1a32	1a	LDAX DE 03
0x1a33	77	MOV HL, A 03
0x1a34	23	INX HL 2025
0x1a35	13	INX DE 1b25
0x1a36	05	DCR B db
0x1a37	c2	JNZ 1a32
0x1a32	1a	LDAX DE 00
0x1a33	77	MOV HL, A 00
0x1a34	23	INX HL 2026
0x1a35	13	INX DE 1b26
0x1a36	05	DCR B da
0x1a37	c2	JNZ 1a32
0x1a32	1a	LDAX DE 10
0x1a33	77	MOV HL, A 10
0x1a34	23	INX HL 2027
0x1a35	13	INX DE 1b27
0x1a36	05	DCR B d9
0x1a37	c2	JNZ 1a32
0x1a32	1a	LDAX DE 90
0x1a33	77	MOV HL, A 90
0x1a34	23	INX HL 2028
0x1a35	13	INX DE 1b28
0x1a36	05	DCR B d8
0x1a37	c2	JNZ 1a32
0x1a32	1a	LDAX DE 1c
0x1a33	77	MOV HL, A 1c
0x1a34	23	INX HL 2029
0x1a35	13	INX DE 1b29
0x1a36	05	DCR B d7
0x1a37	c2	JNZ 1a32
0x1a32	1a	LDAX DE 28
0x1a33	77	MOV HL, A 28
0x1a34	23	INX HL 202a
0x1a35	13	INX DE 1b2a
0x1a36	05	DCR B d6
0x1a37	c2	JNZ 1a32
0x1a32	1a	LDAX DE 30
0x1a33	77	MOV HL, A 30
0x1a34	23	INX HL 202b
0x1a35	13	INX DE 1b2b
0x1a36	05	DCR B d5
0x1a37	c2	JNZ 1a32
0x1a32	1a	LDAX DE 01
0x1a33	77	MOV HL, A 01
0x1a34	23	INX HL 202c
0x1a35	13	INX DE 1b2c
0x1a36	05	DCR B d4
0x1a37	c2	JNZ 1a32
0x1a32	1a	LDAX DE 04
0x1a33	77	MOV HL, A 04
0x1a34	23	INX HL 202d
0x1a35	13	INX DE 1b2d
0x1a36	05	DCR B d3
0x1a37	c2	JNZ 1a32
0x1a32	1a	LDAX DE 00
0x1a33	77	MOV HL, A 00
0x1a34	23	INX HL 202e
0x1a35	13	INX DE 1b2e
0x1a36	05	DCR B d2
0x1a37	c2	JNZ 1a32
0x1a32	1a	LDAX DE ff
0x1a33	77	MOV HL, A ff
0x1a34	23	INX HL 202f
0x1a35	13	INX DE 1b2f
0x1a36	05	DCR B d1
0x1a37	c2	JNZ 1a32
0x1a32	1a	LDAX DE ff
0x1a33	77	MOV HL, A ff
0x1a34	23	INX HL 2030
0x1a35	13	INX DE 1b30
0x1a36	05	DCR B d0
0x1a37	c2	JNZ 1a32
0x1a32	1a	LDAX DE 00
0x1a33	77	MOV HL, A 00
0x1a34	23	INX HL 2031
0x1a35	13	INX DE 1b31
0x1a36	05	DCR B cf
0x1a37	c2	JNZ 1a32
0x1a32	1a	LDAX DE 00
0x1a33	77	MOV HL, A 00
0x1a34	23	INX HL 2032
0x1a35	13	INX DE 1b32
0x1a36	05	DCR B ce
0x1a37	c2	JNZ 1a32
0x1a32	1a	LDAX DE 02
0x1a33	77	MOV HL, A 02
0x1a34	23	INX HL 2033
0x1a35	13	INX DE 1b33
0x1a36	05	DCR B cd
0x1a37	c2	JNZ 1a32
0x1a32	1a	LDAX DE 76
0x1a33	77	MOV HL, A 76
0x1a34	23	INX HL 2034
0x1a35	13	INX DE 1b34
0x1a36	05	DCR B cc
0x1a37	c2	JNZ 1a32
0x1a32	1a	LDAX DE 04
0x1a33	77	MOV HL, A 04
0x1a34	23	INX HL 2035
0x1a35	13	INX DE 1b35
0x1a36	05	DCR B cb
0x1a37	c2	JNZ 1a32
0x1a32	1a	LDAX DE 00
0x1a33	77	MOV HL, A 00
0x1a34	23	INX HL 2036
0x1a35	13	INX DE 1b36
0x1a36	05	DCR B ca
0x1a37	c2	JNZ 1a32
0x1a32	1a	LDAX DE 00
0x1a33	77	MOV HL, A 00
0x1a34	23	INX HL 2037
0x1a35	13	INX DE 1b37
0x1a36	05	DCR B c9
0x1a37	c2	JNZ 1a32
0x1a32	1a	LDAX DE 00
0x1a33	77	MOV HL, A 00
0x1a34	23	INX HL 2038
0x1a35	13	INX DE 1b38
0x1a36	05	DCR B c8
0x1a37	c2	JNZ 1a32
0x1a32	1a	LDAX DE 00
0x1a33	77	MOV HL, A 00
0x1a34	23	INX HL 2039
0x1a35	13	INX DE 1b39
0x1a36	05	DCR B c7
0x1a37	c2	JNZ 1a32
0x1a32	1a	LDAX DE 00
0x1a33	77	MOV HL, A 00
0x1a34	23	INX HL 203a
0x1a35	13	INX DE 1b3a
0x1a36	05	DCR B c6
0x1a37	c2	JNZ 1a32
0x1a32	1a	LDAX DE 04
0x1a33	77	MOV HL, A 04
0x1a34	23	INX HL 203b
0x1a35	13	INX DE 1b3b
0x1a36	05	DCR B c5
0x1a37	c2	JNZ 1a32
0x1a32	1a	LDAX DE ee
0x1a33	77	MOV HL, A ee
0x1a34	23	INX HL 203c
0x1a35	13	INX DE 1b3c
0x1a36	05	DCR B c4
0x1a37	c2	JNZ 1a32
0x1a32	1a	LDAX DE 1c
0x1a33	77	MOV HL, A 1c
0x1a34	23	INX HL 203d
0x1a35	13	INX DE 1b3d
0x1a36	05	DCR B c3
0x1a37	c2	JNZ 1a32
0x1a32	1a	LDAX DE 00
0x1a33	77	MOV HL, A 00
0x1a34	23	INX HL 203e
0x1a35	13	INX DE 1b3e
0x1a36	05	DCR B c2
0x1a37	c2	JNZ 1a32
0x1a32	1a	LDAX DE 00
0x1a33	77	MOV HL, A 00
0x1a34	23	INX HL 203f
0x1a35	13	INX DE 1b3f
0x1a36	05	DCR B c1
0x1a37	c2	JNZ 1a32
0x1a32	1a	LDAX DE 03
0x1a33	77	MOV HL, A 03
0x1a34	23	INX HL 2040
0x1a35	13	INX DE 1b40
0x1a36	05	DCR B c0
0x1a37	c2	JNZ 1a32
0x1a32	1a	LDAX DE 00
0x1a33	77	MOV HL, A 00
0x1a34	23	INX HL 2041
0x1a35	13	INX DE 1b41
0x1a36	05	DCR B bf
0x1a37	c2	JNZ 1a32
0x1a32	1a	LDAX DE 00
0x1a33	77	MOV HL, A 00
0x1a34	23	INX HL 2042
0x1a35	13	INX DE 1b42
0x1a36	05	DCR B be
0x1a37	c2	JNZ 1a32
0x1a32	1a	LDAX DE 00
0x1a33	77	MOV HL, A 00
0x1a34	23	INX HL 2043
0x1a35	13	INX DE 1b43
0x1a36	05	DCR B bd
0x1a37	c2	JNZ 1a32
0x1a32	1a	LDAX DE b6
0x1a33	77	MOV HL, A b6
0x1a34	23	INX HL 2044
0x1a35	13	INX DE 1b44
0x1a36	05	DCR B bc
0x1a37	c2	JNZ 1a32
0x1a32	1a	LDAX DE 04
0x1a33	77	MOV HL, A 04
0x1a34	23	INX HL 2045
0x1a35	13	INX DE 1b45
0x1a36	05	DCR B bb
0x1a37	c2	JNZ 1a32
0x1a32	1a	LDAX DE 00
0x1a33	77	MOV HL, A 00
0x1a34	23	INX HL 2046
0x1a35	13	INX DE 1b46
0x1a36	05	DCR B ba
0x1a37	c2	JNZ 1a32
0x1a32	1a	LDAX DE 00
0x1a33	77	MOV HL, A 00
0x1a34	23	INX HL 2047
0x1a35	13	INX DE 1b47
0x1a36	05	DCR B b9
0x1a37	c2	JNZ 1a32
0x1a32	1a	LDAX DE 01
0x1a33	77	MOV HL, A 01
0x1a34	23	INX HL 2048
0x1a35	13	INX DE 1b48
0x1a36	05	DCR B b8
0x1a37	c2	JNZ 1a32
0x1a32	1a	LDAX DE 00
0x1a33	77	MOV HL, A 00
0x1a34	23	INX HL 2049
0x1a35	13	INX DE 1b49
0x1a36	05	DCR B b7
0x1a37	c2	JNZ 1a32
0x1a32	1a	LDAX DE 1d
0x1a33	77	MOV HL, A 1d
0x1a34	23	INX HL 204a
0x1a35	13	INX DE 1b4a
0x1a36	05	DCR B b6
0x1a37	c2	JNZ 1a32
0x1a32	1a	LDAX DE 04
0x1a33	77	MOV HL, A 04
0x1a34	23	INX HL 204b
0x1a35	13	INX DE 1b4b
0x1a36	05	DCR B b5
0x1a37	c2	JNZ 1a32
0x1a32	1a	LDAX DE e2
0x1a33	77	MOV HL, A e2
0x1a34	23	INX HL 204c
0x1a35	13	INX DE 1b4c
0x1a36	05	DCR B b4
0x1a37	c2	JNZ 1a32
0x1a32	1a	LDAX DE 1c
0x1a33	77	MOV HL, A 1c
0x1a34	23	INX HL 204d
0x1a35	13	INX DE 1b4d
0x1a36	05	DCR B b3
0x1a37	c2	JNZ 1a32
0x1a32	1a	LDAX DE 00
0x1a33	77	MOV HL, A 00
0x1a34	23	INX HL 204e
0x1a35	13	INX DE 1b4e
0x1a36	05	DCR B b2
0x1a37	c2	JNZ 1a32
0x1a32	1a	LDAX DE 00
0x1a33	77	MOV HL, A 00
0x1a34	23	INX HL 204f
0x1a35	13	INX DE 1b4f
0x1a36	05	DCR B b1
0x1a37	c2	JNZ 1a32
0x1a32	1a	LDAX DE 03
0x1a33	77	MOV HL, A 03
0x1a34	23	INX HL 2050
0x1a35	13	INX DE 1b50
0x1a36	05	DCR B b0
0x1a37	c2	JNZ 1a32
0x1a32	1a	LDAX DE 00
0x1a33	77	MOV HL, A 00
0x1a34	23	INX HL 2051
0x1a35	13	INX DE 1b51
0x1a36	05	DCR B af
0x1a37	c2	JNZ 1a32
0x1a32	1a	LDAX DE 00
0x1a33	77	MOV HL, A 00
0x1a34	23	INX HL 2052
0x1a35	13	INX DE 1b52
0x1a36	05	DCR B ae
0x1a37	c2	JNZ 1a32
0x1a32	1a	LDAX DE 00
0x1a33	77	MOV HL, A 00
0x1a34	23	INX HL 2053
0x1a35	13	INX DE 1b53
0x1a36	05	DCR B ad
0x1a37	c2	JNZ 1a32
0x1a32	1a	LDAX DE 82
0x1a33	77	MOV HL, A 82
0x1a34	23	INX HL 2054
0x1a35	13	INX DE 1b54
0x1a36	05	DCR B ac
0x1a37	c2	JNZ 1a32
0x1a32	1a	LDAX DE 06
0x1a33	77	MOV HL, A 06
0x1a34	23	INX HL 2055
0x1a35	13	INX DE 1b55
0x1a36	05	DCR B ab
0x1a37	c2	JNZ 1a32
0x1a32	1a	LDAX DE 00
0x1a33	77	MOV HL, A 00
0x1a34	23	INX HL 2056
0x1a35	13	INX DE 1b56
0x1a36	05	DCR B aa
0x1a37	c2	JNZ 1a32
0x1a32	1a	LDAX DE 00
0x1a33	77	MOV HL, A 00
0x1a34	23	INX HL 2057
0x1a35	13	INX DE 1b57
0x1a36	05	DCR B a9
0x1a37	c2	JNZ 1a32
0x1a32	1a	LDAX DE 01
0x1a33	77	MOV HL, A 01
0x1a34	23	INX HL 2058
0x1a35	13	INX DE 1b58
0x1a36	05	DCR B a8
0x1a37	c2	JNZ 1a32
0x1a32	1a	LDAX DE 06
0x1a33	77	MOV HL, A 06
0x1a34	23	INX HL 2059
0x1a35	13	INX DE 1b59
0x1a36	05	DCR B a7
0x1a37	c2	JNZ 1a32
0x1a32	1a	LDAX DE 1d
0x1a33	77	MOV HL, A 1d
0x1a34	23	INX HL 205a
0x1a35	13	INX DE 1b5a
0x1a36	05	DCR B a6
0x1a37	c2	JNZ 1a32
0x1a32	1a	LDAX DE 04
0x1a33	77	MOV HL, A 04
0x1a34	23	INX HL 205b
0x1a35	13	INX DE 1b5b
0x1a36	05	DCR B a5
0x1a37	c2	JNZ 1a32
0x1a32	1a	LDAX DE d0
0x1a33	77	MOV HL, A d0
0x1a34	23	INX HL 205c
0x1a35	13	INX DE 1b5c
0x1a36	05	DCR B a4
0x1a37	c2	JNZ 1a32
0x1a32	1a	LDAX DE 1c
0x1a33	77	MOV HL, A 1c
0x1a34	23	INX HL 205d
0x1a35	13	INX DE 1b5d
0x1a36	05	DCR B a3
0x1a37	c2	JNZ 1a32
0x1a32	1a	LDAX DE 00
0x1a33	77	MOV HL, A 00
0x1a34	23	INX HL 205e
0x1a35	13	INX DE 1b5e
0x1a36	05	DCR B a2
0x1a37	c2	JNZ 1a32
0x1a32	1a	LDAX DE 00
0x1a33	77	MOV HL, A 00
0x1a34	23	INX HL 205f
0x1a35	13	INX DE 1b5f
0x1a36	05	DCR B a1
0x1a37	c2	JNZ 1a32
0x1a32	1a	LDAX DE 03
0x1a33	77	MOV HL, A 03
0x1a34	23	INX HL 2060
0x1a35	13	INX DE 1b60
0x1a36	05	DCR B a0
0x1a37	c2	JNZ 1a32
0x1a32	1a	LDAX DE ff
0x1a33	77	MOV HL, A ff
0x1a34	23	INX HL 2061
0x1a35	13	INX DE 1b61
0x1a36	05	DCR B 9f
0x1a37	c2	JNZ 1a32
0x1a32	1a	LDAX DE 00
0x1a33	77	MOV HL, A 00
0x1a34	23	INX HL 2062
0x1a35	13	INX DE 1b62
0x1a36	05	DCR B 9e
0x1a37	c2	JNZ 1a32
0x1a32	1a	LDAX DE c0
0x1a33	77	MOV HL, A c0
0x1a34	23	INX HL 2063
0x1a35	13	INX DE 1b63
0x1a36	05	DCR B 9d
0x1a37	c2	JNZ 1a32
0x1a32	1a	LDAX DE 1c
0x1a33	77	MOV HL, A 1c
0x1a34	23	INX HL 2064
0x1a35	13	INX DE 1b64
0x1a36	05	DCR B 9c
0x1a37	c2	JNZ 1a32
0x1a32	1a	LDAX DE 00
0x1a33	77	MOV HL, A 00
0x1a34	23	INX HL 2065
0x1a35	13	INX DE 1b65
0x1a36	05	DCR B 9b
0x1a37	c2	JNZ 1a32
0x1a32	1a	LDAX DE 00
0x1a33	77	MOV HL, A 00
0x1a34	23	INX HL 2066
0x1a35	13	INX DE 1b66
0x1a36	05	DCR B 9a
0x1a37	c2	JNZ 1a32
0x1a32	1a	LDAX DE 10
0x1a33	77	MOV HL, A 10
0x1a34	23	INX HL 2067
0x1a35	13	INX DE 1b67
0x1a36	05	DCR B 99
0x1a37	c2	JNZ 1a32
0x1a32	1a	LDAX DE 21
0x1a33	77	MOV HL, A 21
0x1a34	23	INX HL 2068
0x1a35	13	INX DE 1b68
0x1a36	05	DCR B 98
0x1a37	c2	JNZ 1a32
0x1a32	1a	LDAX DE 01
0x1a33	77	MOV HL, A 01
0x1a34	23	INX HL 2069
0x1a35	13	INX DE 1b69
0x1a36	05	DCR B 97
0x1a37	c2	JNZ 1a32
0x1a32	1a	LDAX DE 00
0x1a33	77	MOV HL, A 00
0x1a34	23	INX HL 206a
0x1a35	13	INX DE 1b6a
0x1a36	05	DCR B 96
0x1a37	c2	JNZ 1a32
0x1a32	1a	LDAX DE 30
0x1a33	77	MOV HL, A 30
0x1a34	23	INX HL 206b
0x1a35	13	INX DE 1b6b
0x1a36	05	DCR B 95
0x1a37	c2	JNZ 1a32
0x1a32	1a	LDAX DE 00
0x1a33	77	MOV HL, A 00
0x1a34	23	INX HL 206c
0x1a35	13	INX DE 1b6c
0x1a36	05	DCR B 94
0x1a37	c2	JNZ 1a32
0x1a32	1a	LDAX DE 12
0x1a33	77	MOV HL, A 12
0x1a34	23	INX HL 206d
0x1a35	13	INX DE 1b6d
0x1a36	05	DCR B 93
0x1a37	c2	JNZ 1a32
0x1a32	1a	LDAX DE 00
0x1a33	77	MOV HL, A 00
0x1a34	23	INX HL 206e
0x1a35	13	INX DE 1b6e
0x1a36	05	DCR B 92
0x1a37	c2	JNZ 1a32
0x1a32	1a	LDAX DE 00
0x1a33	77	MOV HL, A 00
0x1a34	23	INX HL 206f
0x1a35	13	INX DE 1b6f
0x1a36	05	DCR B 91
0x1a37	c2	JNZ 1a32
0x1a32	1a	LDAX DE 00
0x1a33	77	MOV HL, A 00
0x1a34	23	INX HL 2070
0x1a35	13	INX DE 1b70
0x1a36	05	DCR B 90
0x1a37	c2	JNZ 1a32
0x1a32	1a	LDAX DE 0f
0x1a33	77	MOV HL, A 0f
0x1a34	23	INX HL 2071
0x1a35	13	INX DE 1b71
0x1a36	05	DCR B 8f
0x1a37	c2	JNZ 1a32
0x1a32	1a	LDAX DE 0b
0x1a33	77	MOV HL, A 0b
0x1a34	23	INX HL 2072
0x1a35	13	INX DE 1b72
0x1a36	05	DCR B 8e
0x1a37	c2	JNZ 1a32
0x1a32	1a	LDAX DE 00
0x1a33	77	MOV HL, A 00
0x1a34	23	INX HL 2073
0x1a35	13	INX DE 1b73
0x1a36	05	DCR B 8d
0x1a37	c2	JNZ 1a32
0x1a32	1a	LDAX DE 18
0x1a33	77	MOV HL, A 18
0x1a34	23	INX HL 2074
0x1a35	13	INX DE 1b74
0x1a36	05	DCR B 8c
0x1a37	c2	JNZ 1a32
0x1a32	1a	LDAX DE 26
0x1a33	77	MOV HL, A 26
0x1a34	23	INX HL 2075
0x1a35	13	INX DE 1b75
0x1a36	05	DCR B 8b
0x1a37	c2	JNZ 1a32
0x1a32	1a	LDAX DE 0f
0x1a33	77	MOV HL, A 0f
0x1a34	23	INX HL 2076
0x1a35	13	INX DE 1b76
0x1a36	05	DCR B 8a
0x1a37	c2	JNZ 1a32
0x1a32	1a	LDAX DE 0b
0x1a33	77	MOV HL, A 0b
0x1a34	23	INX HL 2077
0x1a35	13	INX DE 1b77
0x1a36	05	DCR B 89
0x1a37	c2	JNZ 1a32
0x1a32	1a	LDAX DE 00
0x1a33	77	MOV HL, A 00
0x1a34	23	INX HL 2078
0x1a35	13	INX DE 1b78
0x1a36	05	DCR B 88
0x1a37	c2	JNZ 1a32
0x1a32	1a	LDAX DE 18
0x1a33	77	MOV HL, A 18
0x1a34	23	INX HL 2079
0x1a35	13	INX DE 1b79
0x1a36	05	DCR B 87
0x1a37	c2	JNZ 1a32
0x1a32	1a	LDAX DE 04
0x1a33	77	MOV HL, A 04
0x1a34	23	INX HL 207a
0x1a35	13	INX DE 1b7a
0x1a36	05	DCR B 86
0x1a37	c2	JNZ 1a32
0x1a32	1a	LDAX DE 11
0x1a33	77	MOV HL, A 11
0x1a34	23	INX HL 207b
0x1a35	13	INX DE 1b7b
0x1a36	05	DCR B 85
0x1a37	c2	JNZ 1a32
0x1a32	1a	LDAX DE 24
0x1a33	77	MOV HL, A 24
0x1a34	23	INX HL 207c
0x1a35	13	INX DE 1b7c
0x1a36	05	DCR B 84
0x1a37	c2	JNZ 1a32
0x1a32	1a	LDAX DE 1b
0x1a33	77	MOV HL, A 1b
0x1a34	23	INX HL 207d
0x1a35	13	INX DE 1b7d
0x1a36	05	DCR B 83
0x1a37	c2	JNZ 1a32
0x1a32	1a	LDAX DE 25
0x1a33	77	MOV HL, A 25
0x1a34	23	INX HL 207e
0x1a35	13	INX DE 1b7e
0x1a36	05	DCR B 82
0x1a37	c2	JNZ 1a32
0x1a32	1a	LDAX DE fc
0x1a33	77	MOV HL, A fc
0x1a34	23	INX HL 207f
0x1a35	13	INX DE 1b7f
0x1a36	05	DCR B 81
0x1a37	c2	JNZ 1a32
0x1a32	1a	LDAX DE 00
0x1a33	77	MOV HL, A 00
0x1a34	23	INX HL 2080
0x1a35	13	INX DE 1b80
0x1a36	05	DCR B 80
0x1a37	c2	JNZ 1a32
0x1a32	1a	LDAX DE 01
0x1a33	77	MOV HL, A 01
0x1a34	23	INX HL 2081
0x1a35	13	INX DE 1b81
0x1a36	05	DCR B 7f
0x1a37	c2	JNZ 1a32
0x1a32	1a	LDAX DE ff
0x1a33	77	MOV HL, A ff
0x1a34	23	INX HL 2082
0x1a35	13	INX DE 1b82
0x1a36	05	DCR B 7e
0x1a37	c2	JNZ 1a32
0x1a32	1a	LDAX DE ff
0x1a33	77	MOV HL, A ff
0x1a34	23	INX HL 2083
0x1a35	13	INX DE 1b83
0x1a36	05	DCR B 7d
0x1a37	c2	JNZ 1a32
0x1a32	1a	LDAX DE 00
0x1a33	77	MOV HL, A 00
0x1a34	23	INX HL 2084
0x1a35	13	INX DE 1b84
0x1a36	05	DCR B 7c
0x1a37	c2	JNZ 1a32
0x1a32	1a	LDAX DE 00
0x1a33	77	MOV HL, A 00
0x1a34	23	INX HL 2085
0x1a35	13	INX DE 1b85
0x1a36	05	DCR B 7b
0x1a37	c2	JNZ 1a32
0x1a32	1a	LDAX DE 00
0x1a33	77	MOV HL, A 00
0x1a34	23	INX HL 2086
0x1a35	13	INX DE 1b86
0x1a36	05	DCR B 7a
0x1a37	c2	JNZ 1a32
0x1a32	1a	LDAX DE 20
0x1a33	77	MOV HL, A 20
0x1a34	23	INX HL 2087
0x1a35	13	INX DE 1b87
0x1a36	05	DCR B 79
0x1a37	c2	JNZ 1a32
0x1a32	1a	LDAX DE 64
0x1a33	77	MOV HL, A 64
0x1a34	23	INX HL 2088
0x1a35	13	INX DE 1b88
0x1a36	05	DCR B 78
0x1a37	c2	JNZ 1a32
0x1a32	1a	LDAX DE 1d
0x1a33	77	MOV HL, A 1d
0x1a34	23	INX HL 2089
0x1a35	13	INX DE 1b89
0x1a36	05	DCR B 77
0x1a37	c2	JNZ 1a32
0x1a32	1a	LDAX DE d0
0x1a33	77	MOV HL, A d0
0x1a34	23	INX HL 208a
0x1a35	13	INX DE 1b8a
0x1a36	05	DCR B 76
0x1a37	c2	JNZ 1a32
0x1a32	1a	LDAX DE 29
0x1a33	77	MOV HL, A 29
0x1a34	23	INX HL 208b
0x1a35	13	INX DE 1b8b
0x1a36	05	DCR B 75
0x1a37	c2	JNZ 1a32
0x1a32	1a	LDAX DE 18
0x1a33	77	MOV HL, A 18
0x1a34	23	INX HL 208c
0x1a35	13	INX DE 1b8c
0x1a36	05	DCR B 74
0x1a37	c2	JNZ 1a32
0x1a32	1a	LDAX DE 02
0x1a33	77	MOV HL, A 02
0x1a34	23	INX HL 208d
0x1a35	13	INX DE 1b8d
0x1a36	05	DCR B 73
0x1a37	c2	JNZ 1a32
0x1a32	1a	LDAX DE 54
0x1a33	77	MOV HL, A 54
0x1a34	23	INX HL 208e
0x1a35	13	INX DE 1b8e
0x1a36	05	DCR B 72
0x1a37	c2	JNZ 1a32
0x1a32	1a	LDAX DE 1d
0x1a33	77	MOV HL, A 1d
0x1a34	23	INX HL 208f
0x1a35	13	INX DE 1b8f
0x1a36	05	DCR B 71
0x1a37	c2	JNZ 1a32
0x1a32	1a	LDAX DE 00
0x1a33	77	MOV HL, A 00
0x1a34	23	INX HL 2090
0x1a35	13	INX DE 1b90
0x1a36	05	DCR B 70
0x1a37	c2	JNZ 1a32
0x1a32	1a	LDAX DE 08
0x1a33	77	MOV HL, A 08
0x1a34	23	INX HL 2091
0x1a35	13	INX DE 1b91
0x1a36	05	DCR B 6f
0x1a37	c2	JNZ 1a32
0x1a32	1a	LDAX DE 00
0x1a33	77	MOV HL, A 00
0x1a34	23	INX HL 2092
0x1a35	13	INX DE 1b92
0x1a36	05	DCR B 6e
0x1a37	c2	JNZ 1a32
0x1a32	1a	LDAX DE 06
0x1a33	77	MOV HL, A 06
0x1a34	23	INX HL 2093
0x1a35	13	INX DE 1b93
0x1a36	05	DCR B 6d
0x1a37	c2	JNZ 1a32
0x1a32	1a	LDAX DE 00
0x1a33	77	MOV HL, A 00
0x1a34	23	INX HL 2094
0x1a35	13	INX DE 1b94
0x1a36	05	DCR B 6c
0x1a37	c2	JNZ 1a32
0x1a32	1a	LDAX DE 00
0x1a33	77	MOV HL, A 00
0x1a34	23	INX HL 2095
0x1a35	13	INX DE 1b95
0x1a36	05	DCR B 6b
0x1a37	c2	JNZ 1a32
0x1a32	1a	LDAX DE 01
0x1a33	77	MOV HL, A 01
0x1a34	23	INX HL 2096
0x1a35	13	INX DE 1b96
0x1a36	05	DCR B 6a
0x1a37	c2	JNZ 1a32
0x1a32	1a	LDAX DE 40
0x1a33	77	MOV HL, A 40
0x1a34	23	INX HL 2097
0x1a35	13	INX DE 1b97
0x1a36	05	DCR B 69
0x1a37	c2	JNZ 1a32
0x1a32	1a	LDAX DE 00
0x1a33	77	MOV HL, A 00
0x1a34	23	INX HL 2098
0x1a35	13	INX DE 1b98
0x1a36	05	DCR B 68
0x1a37	c2	JNZ 1a32
0x1a32	1a	LDAX DE 01
0x1a33	77	MOV HL, A 01
0x1a34	23	INX HL 2099
0x1a35	13	INX DE 1b99
0x1a36	05	DCR B 67
0x1a37	c2	JNZ 1a32
0x1a32	1a	LDAX DE 00
0x1a33	77	MOV HL, A 00
0x1a34	23	INX HL 209a
0x1a35	13	INX DE 1b9a
0x1a36	05	DCR B 66
0x1a37	c2	JNZ 1a32
0x1a32	1a	LDAX DE 00
0x1a33	77	MOV HL, A 00
0x1a34	23	INX HL 209b
0x1a35	13	INX DE 1b9b
0x1a36	05	DCR B 65
0x1a37	c2	JNZ 1a32
0x1a32	1a	LDAX DE 10
0x1a33	77	MOV HL, A 10
0x1a34	23	INX HL 209c
0x1a35	13	INX DE 1b9c
0x1a36	05	DCR B 64
0x1a37	c2	JNZ 1a32
0x1a32	1a	LDAX DE 9e
0x1a33	77	MOV HL, A 9e
0x1a34	23	INX HL 209d
0x1a35	13	INX DE 1b9d
0x1a36	05	DCR B 63
0x1a37	c2	JNZ 1a32
0x1a32	1a	LDAX DE 00
0x1a33	77	MOV HL, A 00
0x1a34	23	INX HL 209e
0x1a35	13	INX DE 1b9e
0x1a36	05	DCR B 62
0x1a37	c2	JNZ 1a32
0x1a32	1a	LDAX DE 20
0x1a33	77	MOV HL, A 20
0x1a34	23	INX HL 209f
0x1a35	13	INX DE 1b9f
0x1a36	05	DCR B 61
0x1a37	c2	JNZ 1a32
0x1a32	1a	LDAX DE 1c
0x1a33	77	MOV HL, A 1c
0x1a34	23	INX HL 20a0
0x1a35	13	INX DE 1ba0
0x1a36	05	DCR B 60
0x1a37	c2	JNZ 1a32
0x1a32	1a	LDAX DE 00
0x1a33	77	MOV HL, A 00
0x1a34	23	INX HL 20a1
0x1a35	13	INX DE 1ba1
0x1a36	05	DCR B 5f
0x1a37	c2	JNZ 1a32
0x1a32	1a	LDAX DE 03
0x1a33	77	MOV HL, A 03
0x1a34	23	INX HL 20a2
0x1a35	13	INX DE 1ba2
0x1a36	05	DCR B 5e
0x1a37	c2	JNZ 1a32
0x1a32	1a	LDAX DE 04
0x1a33	77	MOV HL, A 04
0x1a34	23	INX HL 20a3
0x1a35	13	INX DE 1ba3
0x1a36	05	DCR B 5d
0x1a37	c2	JNZ 1a32
0x1a32	1a	LDAX DE 78
0x1a33	77	MOV HL, A 78
0x1a34	23	INX HL 20a4
0x1a35	13	INX DE 1ba4
0x1a36	05	DCR B 5c
0x1a37	c2	JNZ 1a32
0x1a32	1a	LDAX DE 14
0x1a33	77	MOV HL, A 14
0x1a34	23	INX HL 20a5
0x1a35	13	INX DE 1ba5
0x1a36	05	DCR B 5b
0x1a37	c2	JNZ 1a32
0x1a32	1a	LDAX DE 13
0x1a33	77	MOV HL, A 13
0x1a34	23	INX HL 20a6
0x1a35	13	INX DE 1ba6
0x1a36	05	DCR B 5a
0x1a37	c2	JNZ 1a32
0x1a32	1a	LDAX DE 08
0x1a33	77	MOV HL, A 08
0x1a34	23	INX HL 20a7
0x1a35	13	INX DE 1ba7
0x1a36	05	DCR B 59
0x1a37	c2	JNZ 1a32
0x1a32	1a	LDAX DE 1a
0x1a33	77	MOV HL, A 1a
0x1a34	23	INX HL 20a8
0x1a35	13	INX DE 1ba8
0x1a36	05	DCR B 58
0x1a37	c2	JNZ 1a32
0x1a32	1a	LDAX DE 3d
0x1a33	77	MOV HL, A 3d
0x1a34	23	INX HL 20a9
0x1a35	13	INX DE 1ba9
0x1a36	05	DCR B 57
0x1a37	c2	JNZ 1a32
0x1a32	1a	LDAX DE 68
0x1a33	77	MOV HL, A 68
0x1a34	23	INX HL 20aa
0x1a35	13	INX DE 1baa
0x1a36	05	DCR B 56
0x1a37	c2	JNZ 1a32
0x1a32	1a	LDAX DE fc
0x1a33	77	MOV HL, A fc
0x1a34	23	INX HL 20ab
0x1a35	13	INX DE 1bab
0x1a36	05	DCR B 55
0x1a37	c2	JNZ 1a32
0x1a32	1a	LDAX DE fc
0x1a33	77	MOV HL, A fc
0x1a34	23	INX HL 20ac
0x1a35	13	INX DE 1bac
0x1a36	05	DCR B 54
0x1a37	c2	JNZ 1a32
0x1a32	1a	LDAX DE 68
0x1a33	77	MOV HL, A 68
0x1a34	23	INX HL 20ad
0x1a35	13	INX DE 1bad
0x1a36	05	DCR B 53
0x1a37	c2	JNZ 1a32
0x1a32	1a	LDAX DE 3d
0x1a33	77	MOV HL, A 3d
0x1a34	23	INX HL 20ae
0x1a35	13	INX DE 1bae
0x1a36	05	DCR B 52
0x1a37	c2	JNZ 1a32
0x1a32	1a	LDAX DE 1a
0x1a33	77	MOV HL, A 1a
0x1a34	23	INX HL 20af
0x1a35	13	INX DE 1baf
0x1a36	05	DCR B 51
0x1a37	c2	JNZ 1a32
0x1a32	1a	LDAX DE 00
0x1a33	77	MOV HL, A 00
0x1a34	23	INX HL 20b0
0x1a35	13	INX DE 1bb0
0x1a36	05	DCR B 50
0x1a37	c2	JNZ 1a32
0x1a32	1a	LDAX DE 00
0x1a33	77	MOV HL, A 00
0x1a34	23	INX HL 20b1
0x1a35	13	INX DE 1bb1
0x1a36	05	DCR B 4f
0x1a37	c2	JNZ 1a32
0x1a32	1a	LDAX DE 00
0x1a33	77	MOV HL, A 00
0x1a34	23	INX HL 20b2
0x1a35	13	INX DE 1bb2
0x1a36	05	DCR B 4e
0x1a37	c2	JNZ 1a32
0x1a32	1a	LDAX DE 01
0x1a33	77	MOV HL, A 01
0x1a34	23	INX HL 20b3
0x1a35	13	INX DE 1bb3
0x1a36	05	DCR B 4d
0x1a37	c2	JNZ 1a32
0x1a32	1a	LDAX DE b8
0x1a33	77	MOV HL, A b8
0x1a34	23	INX HL 20b4
0x1a35	13	INX DE 1bb4
0x1a36	05	DCR B 4c
0x1a37	c2	JNZ 1a32
0x1a32	1a	LDAX DE 98
0x1a33	77	MOV HL, A 98
0x1a34	23	INX HL 20b5
0x1a35	13	INX DE 1bb5
0x1a36	05	DCR B 4b
0x1a37	c2	JNZ 1a32
0x1a32	1a	LDAX DE a0
0x1a33	77	MOV HL, A a0
0x1a34	23	INX HL 20b6
0x1a35	13	INX DE 1bb6
0x1a36	05	DCR B 4a
0x1a37	c2	JNZ 1a32
0x1a32	1a	LDAX DE 1b
0x1a33	77	MOV HL, A 1b
0x1a34	23	INX HL 20b7
0x1a35	13	INX DE 1bb7
0x1a36	05	DCR B 49
0x1a37	c2	JNZ 1a32
0x1a32	1a	LDAX DE 10
0x1a33	77	MOV HL, A 10
0x1a34	23	INX HL 20b8
0x1a35	13	INX DE 1bb8
0x1a36	05	DCR B 48
0x1a37	c2	JNZ 1a32
0x1a32	1a	LDAX DE ff
0x1a33	77	MOV HL, A ff
0x1a34	23	INX HL 20b9
0x1a35	13	INX DE 1bb9
0x1a36	05	DCR B 47
0x1a37	c2	JNZ 1a32
0x1a32	1a	LDAX DE 00
0x1a33	77	MOV HL, A 00
0x1a34	23	INX HL 20ba
0x1a35	13	INX DE 1bba
0x1a36	05	DCR B 46
0x1a37	c2	JNZ 1a32
0x1a32	1a	LDAX DE a0
0x1a33	77	MOV HL, A a0
0x1a34	23	INX HL 20bb
0x1a35	13	INX DE 1bbb
0x1a36	05	DCR B 45
0x1a37	c2	JNZ 1a32
0x1a32	1a	LDAX DE 1b
0x1a33	77	MOV HL, A 1b
0x1a34	23	INX HL 20bc
0x1a35	13	INX DE 1bbc
0x1a36	05	DCR B 44
0x1a37	c2	JNZ 1a32
0x1a32	1a	LDAX DE 00
0x1a33	77	MOV HL, A 00
0x1a34	23	INX HL 20bd
0x1a35	13	INX DE 1bbd
0x1a36	05	DCR B 43
0x1a37	c2	JNZ 1a32
0x1a32	1a	LDAX DE 00
0x1a33	77	MOV HL, A 00
0x1a34	23	INX HL 20be
0x1a35	13	INX DE 1bbe
0x1a36	05	DCR B 42
0x1a37	c2	JNZ 1a32
0x1a32	1a	LDAX DE 00
0x1a33	77	MOV HL, A 00
0x1a34	23	INX HL 20bf
0x1a35	13	INX DE 1bbf
0x1a36	05	DCR B 41
0x1a37	c2	JNZ 1a32
0x1a32	1a	LDAX DE 00
0x1a33	77	MOV HL, A 00
0x1a34	23	INX HL 20c0
0x1a35	13	INX DE 1bc0
0x1a36	05	DCR B 40
0x1a37	c2	JNZ 1a32
0x1a32	1a	LDAX DE 00
0x1a33	77	MOV HL, A 00
0x1a34	23	INX HL 20c1
0x1a35	13	INX DE 1bc1
0x1a36	05	DCR B 3f
0x1a37	c2	JNZ 1a32
0x1a32	1a	LDAX DE 10
0x1a33	77	MOV HL, A 10
0x1a34	23	INX HL 20c2
0x1a35	13	INX DE 1bc2
0x1a36	05	DCR B 3e
0x1a37	c2	JNZ 1a32
0x1a32	1a	LDAX DE 00
0x1a33	77	MOV HL, A 00
0x1a34	23	INX HL 20c3
0x1a35	13	INX DE 1bc3
0x1a36	05	DCR B 3d
0x1a37	c2	JNZ 1a32
0x1a32	1a	LDAX DE 0e
0x1a33	77	MOV HL, A 0e
0x1a34	23	INX HL 20c4
0x1a35	13	INX DE 1bc4
0x1a36	05	DCR B 3c
0x1a37	c2	JNZ 1a32
0x1a32	1a	LDAX DE 05
0x1a33	77	MOV HL, A 05
0x1a34	23	INX HL 20c5
0x1a35	13	INX DE 1bc5
0x1a36	05	DCR B 3b
0x1a37	c2	JNZ 1a32
0x1a32	1a	LDAX DE 00
0x1a33	77	MOV HL, A 00
0x1a34	23	INX HL 20c6
0x1a35	13	INX DE 1bc6
0x1a36	05	DCR B 3a
0x1a37	c2	JNZ 1a32
0x1a32	1a	LDAX DE 00
0x1a33	77	MOV HL, A 00
0x1a34	23	INX HL 20c7
0x1a35	13	INX DE 1bc7
0x1a36	05	DCR B 39
0x1a37	c2	JNZ 1a32
0x1a32	1a	LDAX DE 00
0x1a33	77	MOV HL, A 00
0x1a34	23	INX HL 20c8
0x1a35	13	INX DE 1bc8
0x1a36	05	DCR B 38
0x1a37	c2	JNZ 1a32
0x1a32	1a	LDAX DE 00
0x1a33	77	MOV HL, A 00
0x1a34	23	INX HL 20c9
0x1a35	13	INX DE 1bc9
0x1a36	05	DCR B 37
0x1a37	c2	JNZ 1a32
0x1a32	1a	LDAX DE 00
0x1a33	77	MOV HL, A 00
0x1a34	23	INX HL 20ca
0x1a35	13	INX DE 1bca
0x1a36	05	DCR B 36
0x1a37	c2	JNZ 1a32
0x1a32	1a	LDAX DE 07
0x1a33	77	MOV HL, A 07
0x1a34	23	INX HL 20cb
0x1a35	13	INX DE 1bcb
0x1a36	05	DCR B 35
0x1a37	c2	JNZ 1a32
0x1a32	1a	LDAX DE d0
0x1a33	77	MOV HL, A d0
0x1a34	23	INX HL 20cc
0x1a35	13	INX DE 1bcc
0x1a36	05	DCR B 34
0x1a37	c2	JNZ 1a32
0x1a32	1a	LDAX DE 1c
0x1a33	77	MOV HL, A 1c
0x1a34	23	INX HL 20cd
0x1a35	13	INX DE 1bcd
0x1a36	05	DCR B 33
0x1a37	c2	JNZ 1a32
0x1a32	1a	LDAX DE c8
0x1a33	77	MOV HL, A c8
0x1a34	23	INX HL 20ce
0x1a35	13	INX DE 1bce
0x1a36	05	DCR B 32
0x1a37	c2	JNZ 1a32
0x1a32	1a	LDAX DE 9b
0x1a33	77	MOV HL, A 9b
0x1a34	23	INX HL 20cf
0x1a35	13	INX DE 1bcf
0x1a36	05	DCR B 31
0x1a37	c2	JNZ 1a32
0x1a32	1a	LDAX DE 03
0x1a33	77	MOV HL, A 03
0x1a34	23	INX HL 20d0
0x1a35	13	INX DE 1bd0
0x1a36	05	DCR B 30
0x1a37	c2	JNZ 1a32
0x1a32	1a	LDAX DE 00
0x1a33	77	MOV HL, A 00
0x1a34	23	INX HL 20d1
0x1a35	13	INX DE 1bd1
0x1a36	05	DCR B 2f
0x1a37	c2	JNZ 1a32
0x1a32	1a	LDAX DE 00
0x1a33	77	MOV HL, A 00
0x1a34	23	INX HL 20d2
0x1a35	13	INX DE 1bd2
0x1a36	05	DCR B 2e
0x1a37	c2	JNZ 1a32
0x1a32	1a	LDAX DE 03
0x1a33	77	MOV HL, A 03
0x1a34	23	INX HL 20d3
0x1a35	13	INX DE 1bd3
0x1a36	05	DCR B 2d
0x1a37	c2	JNZ 1a32
0x1a32	1a	LDAX DE 04
0x1a33	77	MOV HL, A 04
0x1a34	23	INX HL 20d4
0x1a35	13	INX DE 1bd4
0x1a36	05	DCR B 2c
0x1a37	c2	JNZ 1a32
0x1a32	1a	LDAX DE 78
0x1a33	77	MOV HL, A 78
0x1a34	23	INX HL 20d5
0x1a35	13	INX DE 1bd5
0x1a36	05	DCR B 2b
0x1a37	c2	JNZ 1a32
0x1a32	1a	LDAX DE 14
0x1a33	77	MOV HL, A 14
0x1a34	23	INX HL 20d6
0x1a35	13	INX DE 1bd6
0x1a36	05	DCR B 2a
0x1a37	c2	JNZ 1a32
0x1a32	1a	LDAX DE 0b
0x1a33	77	MOV HL, A 0b
0x1a34	23	INX HL 20d7
0x1a35	13	INX DE 1bd7
0x1a36	05	DCR B 29
0x1a37	c2	JNZ 1a32
0x1a32	1a	LDAX DE 19
0x1a33	77	MOV HL, A 19
0x1a34	23	INX HL 20d8
0x1a35	13	INX DE 1bd8
0x1a36	05	DCR B 28
0x1a37	c2	JNZ 1a32
0x1a32	1a	LDAX DE 3a
0x1a33	77	MOV HL, A 3a
0x1a34	23	INX HL 20d9
0x1a35	13	INX DE 1bd9
0x1a36	05	DCR B 27
0x1a37	c2	JNZ 1a32
0x1a32	1a	LDAX DE 6d
0x1a33	77	MOV HL, A 6d
0x1a34	23	INX HL 20da
0x1a35	13	INX DE 1bda
0x1a36	05	DCR B 26
0x1a37	c2	JNZ 1a32
0x1a32	1a	LDAX DE fa
0x1a33	77	MOV HL, A fa
0x1a34	23	INX HL 20db
0x1a35	13	INX DE 1bdb
0x1a36	05	DCR B 25
0x1a37	c2	JNZ 1a32
0x1a32	1a	LDAX DE fa
0x1a33	77	MOV HL, A fa
0x1a34	23	INX HL 20dc
0x1a35	13	INX DE 1bdc
0x1a36	05	DCR B 24
0x1a37	c2	JNZ 1a32
0x1a32	1a	LDAX DE 6d
0x1a33	77	MOV HL, A 6d
0x1a34	23	INX HL 20dd
0x1a35	13	INX DE 1bdd
0x1a36	05	DCR B 23
0x1a37	c2	JNZ 1a32
0x1a32	1a	LDAX DE 3a
0x1a33	77	MOV HL, A 3a
0x1a34	23	INX HL 20de
0x1a35	13	INX DE 1bde
0x1a36	05	DCR B 22
0x1a37	c2	JNZ 1a32
0x1a32	1a	LDAX DE 19
0x1a33	77	MOV HL, A 19
0x1a34	23	INX HL 20df
0x1a35	13	INX DE 1bdf
0x1a36	05	DCR B 21
0x1a37	c2	JNZ 1a32
0x1a32	1a	LDAX DE 00
0x1a33	77	MOV HL, A 00
0x1a34	23	INX HL 20e0
0x1a35	13	INX DE 1be0
0x1a36	05	DCR B 20
0x1a37	c2	JNZ 1a32
0x1a32	1a	LDAX DE 00
0x1a33	77	MOV HL, A 00
0x1a34	23	INX HL 20e1
0x1a35	13	INX DE 1be1
0x1a36	05	DCR B 1f
0x1a37	c2	JNZ 1a32
0x1a32	1a	LDAX DE 00
0x1a33	77	MOV HL, A 00
0x1a34	23	INX HL 20e2
0x1a35	13	INX DE 1be2
0x1a36	05	DCR B 1e
0x1a37	c2	JNZ 1a32
0x1a32	1a	LDAX DE 00
0x1a33	77	MOV HL, A 00
0x1a34	23	INX HL 20e3
0x1a35	13	INX DE 1be3
0x1a36	05	DCR B 1d
0x1a37	c2	JNZ 1a32
0x1a32	1a	LDAX DE 00
0x1a33	77	MOV HL, A 00
0x1a34	23	INX HL 20e4
0x1a35	13	INX DE 1be4
0x1a36	05	DCR B 1c
0x1a37	c2	JNZ 1a32
0x1a32	1a	LDAX DE 00
0x1a33	77	MOV HL, A 00
0x1a34	23	INX HL 20e5
0x1a35	13	INX DE 1be5
0x1a36	05	DCR B 1b
0x1a37	c2	JNZ 1a32
0x1a32	1a	LDAX DE 00
0x1a33	77	MOV HL, A 00
0x1a34	23	INX HL 20e6
0x1a35	13	INX DE 1be6
0x1a36	05	DCR B 1a
0x1a37	c2	JNZ 1a32
0x1a32	1a	LDAX DE 00
0x1a33	77	MOV HL, A 00
0x1a34	23	INX HL 20e7
0x1a35	13	INX DE 1be7
0x1a36	05	DCR B 19
0x1a37	c2	JNZ 1a32
0x1a32	1a	LDAX DE 00
0x1a33	77	MOV HL, A 00
0x1a34	23	INX HL 20e8
0x1a35	13	INX DE 1be8
0x1a36	05	DCR B 18
0x1a37	c2	JNZ 1a32
0x1a32	1a	LDAX DE 00
0x1a33	77	MOV HL, A 00
0x1a34	23	INX HL 20e9
0x1a35	13	INX DE 1be9
0x1a36	05	DCR B 17
0x1a37	c2	JNZ 1a32
0x1a32	1a	LDAX DE 01
0x1a33	77	MOV HL, A 01
0x1a34	23	INX HL 20ea
0x1a35	13	INX DE 1bea
0x1a36	05	DCR B 16
0x1a37	c2	JNZ 1a32
0x1a32	1a	LDAX DE 00
0x1a33	77	MOV HL, A 00
0x1a34	23	INX HL 20eb
0x1a35	13	INX DE 1beb
0x1a36	05	DCR B 15
0x1a37	c2	JNZ 1a32
0x1a32	1a	LDAX DE 00
0x1a33	77	MOV HL, A 00
0x1a34	23	INX HL 20ec
0x1a35	13	INX DE 1bec
0x1a36	05	DCR B 14
0x1a37	c2	JNZ 1a32
0x1a32	1a	LDAX DE 01
0x1a33	77	MOV HL, A 01
0x1a34	23	INX HL 20ed
0x1a35	13	INX DE 1bed
0x1a36	05	DCR B 13
0x1a37	c2	JNZ 1a32
0x1a32	1a	LDAX DE 74
0x1a33	77	MOV HL, A 74
0x1a34	23	INX HL 20ee
0x1a35	13	INX DE 1bee
0x1a36	05	DCR B 12
0x1a37	c2	JNZ 1a32
0x1a32	1a	LDAX DE 1f
0x1a33	77	MOV HL, A 1f
0x1a34	23	INX HL 20ef
0x1a35	13	INX DE 1bef
0x1a36	05	DCR B 11
0x1a37	c2	JNZ 1a32
0x1a32	1a	LDAX DE 00
0x1a33	77	MOV HL, A 00
0x1a34	23	INX HL 20f0
0x1a35	13	INX DE 1bf0
0x1a36	05	DCR B 10
0x1a37	c2	JNZ 1a32
0x1a32	1a	LDAX DE 80
0x1a33	77	MOV HL, A 80
0x1a34	23	INX HL 20f1
0x1a35	13	INX DE 1bf1
0x1a36	05	DCR B 0f
0x1a37	c2	JNZ 1a32
0x1a32	1a	LDAX DE 00
0x1a33	77	MOV HL, A 00
0x1a34	23	INX HL 20f2
0x1a35	13	INX DE 1bf2
0x1a36	05	DCR B 0e
0x1a37	c2	JNZ 1a32
0x1a32	1a	LDAX DE 00
0x1a33	77	MOV HL, A 00
0x1a34	23	INX HL 20f3
0x1a35	13	INX DE 1bf3
0x1a36	05	DCR B 0d
0x1a37	c2	JNZ 1a32
0x1a32	1a	LDAX DE 00
0x1a33	77	MOV HL, A 00
0x1a34	23	INX HL 20f4
0x1a35	13	INX DE 1bf4
0x1a36	05	DCR B 0c
0x1a37	c2	JNZ 1a32
0x1a32	1a	LDAX DE 00
0x1a33	77	MOV HL, A 00
0x1a34	23	INX HL 20f5
0x1a35	13	INX DE 1bf5
0x1a36	05	DCR B 0b
0x1a37	c2	JNZ 1a32
0x1a32	1a	LDAX DE 00
0x1a33	77	MOV HL, A 00
0x1a34	23	INX HL 20f6
0x1a35	13	INX DE 1bf6
0x1a36	05	DCR B 0a
0x1a37	c2	JNZ 1a32
0x1a32	1a	LDAX DE 1c
0x1a33	77	MOV HL, A 1c
0x1a34	23	INX HL 20f7
0x1a35	13	INX DE 1bf7
0x1a36	05	DCR B 09
0x1a37	c2	JNZ 1a32
0x1a32	1a	LDAX DE 2f
0x1a33	77	MOV HL, A 2f
0x1a34	23	INX HL 20f8
0x1a35	13	INX DE 1bf8
0x1a36	05	DCR B 08
0x1a37	c2	JNZ 1a32
0x1a32	1a	LDAX DE 00
0x1a33	77	MOV HL, A 00
0x1a34	23	INX HL 20f9
0x1a35	13	INX DE 1bf9
0x1a36	05	DCR B 07
0x1a37	c2	JNZ 1a32
0x1a32	1a	LDAX DE 00
0x1a33	77	MOV HL, A 00
0x1a34	23	INX HL 20fa
0x1a35	13	INX DE 1bfa
0x1a36	05	DCR B 06
0x1a37	c2	JNZ 1a32
0x1a32	1a	LDAX DE 1c
0x1a33	77	MOV HL, A 1c
0x1a34	23	INX HL 20fb
0x1a35	13	INX DE 1bfb
0x1a36	05	DCR B 05
0x1a37	c2	JNZ 1a32
0x1a32	1a	LDAX DE 27
0x1a33	77	MOV HL, A 27
0x1a34	23	INX HL 20fc
0x1a35	13	INX DE 1bfc
0x1a36	05	DCR B 04
0x1a37	c2	JNZ 1a32
0x1a32	1a	LDAX DE 00
0x1a33	77	MOV HL, A 00
0x1a34	23	INX HL 20fd
0x1a35	13	INX DE 1bfd
0x1a36	05	DCR B 03
0x1a37	c2	JNZ 1a32
0x1a32	1a	LDAX DE 00
0x1a33	77	MOV HL, A 00
0x1a34	23	INX HL 20fe
0x1a35	13	INX DE 1bfe
0x1a36	05	DCR B 02
0x1a37	c2	JNZ 1a32
0x1a32	1a	LDAX DE 1c
0x1a33	77	MOV HL, A 1c
0x1a34	23	INX HL 20ff
0x1a35	13	INX DE 1bff
0x1a36	05	DCR B 01
0x1a37	c2	JNZ 1a32
0x1a32	1a	LDAX DE 39
0x1a33	77	MOV HL, A 39
0x1a34	23	INX HL 2100
0x1a35	13	INX DE 1c00
0x1a36	05	DCR B 00
0x1a37	c2	JNZ
0x1a3a	c9	RET 18dc
0x18dc	cd	CALL 1956
0x1956	cd	CALL 1a5c
0x1a5c	21	LXI HL 2400
0x1a5f	36	MVI M 00
0x1a61	23	INX HL 2401
0x1a62	7c	MOV A, H 24
0x1a63	fe	unimplemented instruction 0xfe
